; Function Attrs: nounwind uwtable
define dso_local void @archive_entry_set_hardlink(ptr noundef %0, ptr noundef %1) local_unnamed_addr #0 {
  %3 = icmp eq ptr %1, null
  %4 = getelementptr inbounds nuw i8, ptr %0, i64 192
  %5 = load i32, ptr %4, align 8, !tbaa !31
  br i1 %3, label %6, label %9

6:                                                ; preds = %2
  %7 = and i32 %5, -2
  store i32 %7, ptr %4, align 8, !tbaa !31
  %8 = and i32 %5, 2
  %.not = icmp eq i32 %8, 0
  br i1 %.not, label %11, label %17

9:                                                ; preds = %2
  %10 = or i32 %5, 1
  br label %11

11:                                               ; preds = %6, %9
  %12 = phi i32 [ %7, %6 ], [ %10, %9 ]
  %13 = getelementptr inbounds nuw i8, ptr %0, i64 192
  %14 = and i32 %12, -3
  store i32 %14, ptr %13, align 8, !tbaa !31
  %15 = getelementptr inbounds nuw i8, ptr %0, i64 424
  %16 = tail call i32 @archive_mstring_copy_mbs(ptr noundef nonnull %15, ptr noundef %1) #21
  br label %17

17:                                               ; preds = %6, %11
  ret void
}